; Function Attrs: nofree norecurse nosync nounwind memory(argmem: read) uwtable
define internal i32 @pg_sjis_verifystr(ptr noundef %0, i32 noundef %1) #5 {
  %3 = icmp sgt i32 %1, 0
  br i1 %3, label %.lr.ph, label %.thread

.lr.ph:                                           ; preds = %2, %pg_sjis_verifychar.exit.thread19
  %.01426 = phi ptr [ %18, %pg_sjis_verifychar.exit.thread19 ], [ %0, %2 ]
  %.01525 = phi i32 [ %19, %pg_sjis_verifychar.exit.thread19 ], [ %1, %2 ]
  %4 = load i8, ptr %.01426, align 1
  %.not = icmp sgt i8 %4, -1
  br i1 %.not, label %5, label %7

5:                                                ; preds = %.lr.ph
  %6 = icmp eq i8 %4, 0
  br i1 %6, label %.thread, label %pg_sjis_verifychar.exit.thread19

7:                                                ; preds = %.lr.ph
  %8 = add nsw i8 %4, 95
  %or.cond.i.i = icmp ult i8 %8, 63
  %.0.i.i = select i1 %or.cond.i.i, i32 1, i32 2
  %9 = icmp samesign ult i32 %.01525, %.0.i.i
  %brmerge.i = or i1 %or.cond.i.i, %9
  br i1 %brmerge.i, label %pg_sjis_verifychar.exit, label %10

10:                                               ; preds = %7
  %11 = add nsw i8 %4, 127
  %or.cond.i = icmp ult i8 %11, 31
  %12 = add nsw i8 %4, 32
  %or.cond5.i = icmp ult i8 %12, 29
  %or.cond28.i = or i1 %or.cond.i, %or.cond5.i
  br i1 %or.cond28.i, label %13, label %.thread

13:                                               ; preds = %10
  %14 = getelementptr inbounds nuw i8, ptr %.01426, i64 1
  %15 = load i8, ptr %14, align 1
  %16 = add i8 %15, -64
  %or.cond8.i = icmp ult i8 %16, 63
  %or.cond11.i = icmp slt i8 %15, -3
  %or.cond29.i = or i1 %or.cond11.i, %or.cond8.i
  br i1 %or.cond29.i, label %pg_sjis_verifychar.exit.thread19, label %.thread

pg_sjis_verifychar.exit:                          ; preds = %7
  br i1 %9, label %.thread, label %pg_sjis_verifychar.exit.thread19

pg_sjis_verifychar.exit.thread19:                 ; preds = %13, %pg_sjis_verifychar.exit, %5
  %.013 = phi i32 [ 1, %pg_sjis_verifychar.exit ], [ 1, %5 ], [ 2, %13 ]
  %17 = zext nneg i32 %.013 to i64
  %18 = getelementptr inbounds nuw i8, ptr %.01426, i64 %17
  %19 = sub nsw i32 %.01525, %.013
  %20 = icmp sgt i32 %19, 0
  br i1 %20, label %.lr.ph, label %.thread

.thread:                                          ; preds = %pg_sjis_verifychar.exit.thread19, %5, %pg_sjis_verifychar.exit, %10, %13, %2
  %.014.lcssa = phi ptr [ %0, %2 ], [ %.01426, %13 ], [ %.01426, %10 ], [ %.01426, %pg_sjis_verifychar.exit ], [ %.01426, %5 ], [ %18, %pg_sjis_verifychar.exit.thread19 ]
  %21 = ptrtoint ptr %.014.lcssa to i64
  %22 = ptrtoint ptr %0 to i64
  %23 = sub i64 %21, %22
  %24 = trunc i64 %23 to i32
  ret i32 %24
}